; Function Attrs: mustprogress uwtable
define internal void @_ZN11opencv_test12_GLOBAL__N_138gtest_Tracking_Boosting_EvalGenerator_B5cxx11Ev(ptr dead_on_unwind noalias writable sret(%"class.testing::internal::ParamGenerator") align 8 %0) #4 personality ptr @__gxx_personality_v0 {
  %2 = alloca %"class.std::vector.69", align 8
  call void @llvm.lifetime.start.p0(i64 24, ptr nonnull %2) #28
  call fastcc void @_ZN11opencv_test12_GLOBAL__N_117getTrackingParamsB5cxx11Ev(ptr dead_on_unwind noalias writable align 8 %2)
  %3 = load ptr, ptr %2, align 8, !tbaa !34, !noalias !36
  %4 = getelementptr inbounds nuw i8, ptr %2, i64 8
  %5 = load ptr, ptr %4, align 8, !tbaa !34, !noalias !36
  invoke void @_ZN7testing8ValuesInIN9__gnu_cxx17__normal_iteratorIPKSt5tupleIJNSt7__cxx1112basic_stringIcSt11char_traitsIcESaIcEEEiN2cv5Rect_IiEEEESt6vectorISD_SaISD_EEEEEENS_8internal14ParamGeneratorINSK_14IteratorTraitsIT_E10value_typeEEESN_SN_(ptr dead_on_unwind writable sret(%"class.testing::internal::ParamGenerator") align 8 %0, ptr %3, ptr %5)
          to label %_ZN7testing8ValuesInISt6vectorISt5tupleIJNSt7__cxx1112basic_stringIcSt11char_traitsIcESaIcEEEiN2cv5Rect_IiEEEESaISC_EEEENS_8internal14ParamGeneratorINT_10value_typeEEERKSH_.exit unwind label %15

_ZN7testing8ValuesInISt6vectorISt5tupleIJNSt7__cxx1112basic_stringIcSt11char_traitsIcESaIcEEEiN2cv5Rect_IiEEEESaISC_EEEENS_8internal14ParamGeneratorINT_10value_typeEEERKSH_.exit: ; preds = %1
  %.not4.i.i.i.i = icmp eq ptr %3, %5
  br i1 %.not4.i.i.i.i, label %_ZSt8_DestroyIPSt5tupleIJNSt7__cxx1112basic_stringIcSt11char_traitsIcESaIcEEEiN2cv5Rect_IiEEEESA_EvT_SC_RSaIT0_E.exit.i, label %.lr.ph.i.i.i.i

.lr.ph.i.i.i.i:                                   ; preds = %_ZN7testing8ValuesInISt6vectorISt5tupleIJNSt7__cxx1112basic_stringIcSt11char_traitsIcESaIcEEEiN2cv5Rect_IiEEEESaISC_EEEENS_8internal14ParamGeneratorINT_10value_typeEEERKSH_.exit, %_ZSt8_DestroyISt5tupleIJNSt7__cxx1112basic_stringIcSt11char_traitsIcESaIcEEEiN2cv5Rect_IiEEEEEvPT_.exit.i.i.i.i
  %.05.i.i.i.i = phi ptr [ %13, %_ZSt8_DestroyISt5tupleIJNSt7__cxx1112basic_stringIcSt11char_traitsIcESaIcEEEiN2cv5Rect_IiEEEEEvPT_.exit.i.i.i.i ], [ %3, %_ZN7testing8ValuesInISt6vectorISt5tupleIJNSt7__cxx1112basic_stringIcSt11char_traitsIcESaIcEEEiN2cv5Rect_IiEEEESaISC_EEEENS_8internal14ParamGeneratorINT_10value_typeEEERKSH_.exit ]
  %6 = getelementptr inbounds nuw i8, ptr %.05.i.i.i.i, i64 24
  %7 = load ptr, ptr %6, align 8, !tbaa !17
  %8 = getelementptr inbounds nuw i8, ptr %.05.i.i.i.i, i64 40
  %9 = icmp eq ptr %7, %8
  br i1 %9, label %_ZNKSt7__cxx1112basic_stringIcSt11char_traitsIcESaIcEE11_M_is_localEv.exit.thread.i.i.i.i.i.i.i.i.i, label %_ZNKSt7__cxx1112basic_stringIcSt11char_traitsIcESaIcEE11_M_is_localEv.exit.i.i.i.i.i.i.i.i.i

_ZNKSt7__cxx1112basic_stringIcSt11char_traitsIcESaIcEE11_M_is_localEv.exit.thread.i.i.i.i.i.i.i.i.i: ; preds = %.lr.ph.i.i.i.i
  %10 = getelementptr inbounds nuw i8, ptr %.05.i.i.i.i, i64 32
  %11 = load i64, ptr %10, align 8, !tbaa !20
  %12 = icmp ult i64 %11, 16
  tail call void @llvm.assume(i1 %12)
  br label %_ZSt8_DestroyISt5tupleIJNSt7__cxx1112basic_stringIcSt11char_traitsIcESaIcEEEiN2cv5Rect_IiEEEEEvPT_.exit.i.i.i.i

_ZNKSt7__cxx1112basic_stringIcSt11char_traitsIcESaIcEE11_M_is_localEv.exit.i.i.i.i.i.i.i.i.i: ; preds = %.lr.ph.i.i.i.i
  tail call void @_ZdlPv(ptr noundef %7) #29
  br label %_ZSt8_DestroyISt5tupleIJNSt7__cxx1112basic_stringIcSt11char_traitsIcESaIcEEEiN2cv5Rect_IiEEEEEvPT_.exit.i.i.i.i

_ZSt8_DestroyISt5tupleIJNSt7__cxx1112basic_stringIcSt11char_traitsIcESaIcEEEiN2cv5Rect_IiEEEEEvPT_.exit.i.i.i.i: ; preds = %_ZNKSt7__cxx1112basic_stringIcSt11char_traitsIcESaIcEE11_M_is_localEv.exit.i.i.i.i.i.i.i.i.i, %_ZNKSt7__cxx1112basic_stringIcSt11char_traitsIcESaIcEE11_M_is_localEv.exit.thread.i.i.i.i.i.i.i.i.i
  %13 = getelementptr inbounds nuw i8, ptr %.05.i.i.i.i, i64 56
  %.not.i.i.i.i = icmp eq ptr %13, %5
  br i1 %.not.i.i.i.i, label %_ZSt8_DestroyIPSt5tupleIJNSt7__cxx1112basic_stringIcSt11char_traitsIcESaIcEEEiN2cv5Rect_IiEEEESA_EvT_SC_RSaIT0_E.exit.i, label %.lr.ph.i.i.i.i, !llvm.loop !39

_ZSt8_DestroyIPSt5tupleIJNSt7__cxx1112basic_stringIcSt11char_traitsIcESaIcEEEiN2cv5Rect_IiEEEESA_EvT_SC_RSaIT0_E.exit.i: ; preds = %_ZSt8_DestroyISt5tupleIJNSt7__cxx1112basic_stringIcSt11char_traitsIcESaIcEEEiN2cv5Rect_IiEEEEEvPT_.exit.i.i.i.i, %_ZN7testing8ValuesInISt6vectorISt5tupleIJNSt7__cxx1112basic_stringIcSt11char_traitsIcESaIcEEEiN2cv5Rect_IiEEEESaISC_EEEENS_8internal14ParamGeneratorINT_10value_typeEEERKSH_.exit
  %.not.i.i.i = icmp eq ptr %3, null
  br i1 %.not.i.i.i, label %_ZNSt6vectorISt5tupleIJNSt7__cxx1112basic_stringIcSt11char_traitsIcESaIcEEEiN2cv5Rect_IiEEEESaISA_EED2Ev.exit, label %14

14:                                               ; preds = %_ZSt8_DestroyIPSt5tupleIJNSt7__cxx1112basic_stringIcSt11char_traitsIcESaIcEEEiN2cv5Rect_IiEEEESA_EvT_SC_RSaIT0_E.exit.i
  tail call void @_ZdlPv(ptr noundef nonnull %3) #29
  br label %_ZNSt6vectorISt5tupleIJNSt7__cxx1112basic_stringIcSt11char_traitsIcESaIcEEEiN2cv5Rect_IiEEEESaISA_EED2Ev.exit

_ZNSt6vectorISt5tupleIJNSt7__cxx1112basic_stringIcSt11char_traitsIcESaIcEEEiN2cv5Rect_IiEEEESaISA_EED2Ev.exit: ; preds = %_ZSt8_DestroyIPSt5tupleIJNSt7__cxx1112basic_stringIcSt11char_traitsIcESaIcEEEiN2cv5Rect_IiEEEESA_EvT_SC_RSaIT0_E.exit.i, %14
  call void @llvm.lifetime.end.p0(i64 24, ptr nonnull %2) #28
  ret void

15:                                               ; preds = %1
  %16 = landingpad { ptr, i32 }
          cleanup
  call void @_ZNSt6vectorISt5tupleIJNSt7__cxx1112basic_stringIcSt11char_traitsIcESaIcEEEiN2cv5Rect_IiEEEESaISA_EED2Ev(ptr noundef nonnull align 8 dereferenceable(24) %2) #28
  call void @llvm.lifetime.end.p0(i64 24, ptr nonnull %2) #28
  resume { ptr, i32 } %16
}